target datalayout = "e-m:e-p270:32:32-p271:32:32-p272:64:64-i64:64-i128:128-f80:128-n8:16:32:64-S128"
target triple = "x86_64-pc-linux-gnu"

%struct._asn1_ctx_t = type { i32, i32, i8, ptr, ptr, ptr, ptr, ptr, %struct.anon, %struct.anon.2, %struct.anon.3, ptr }
%struct.anon = type { i32, i8, i8, i8, ptr, ptr, i32, i32, ptr, ptr, ptr, %union.anon }
%union.anon = type { %struct.anon.0 }
%struct.anon.0 = type { ptr }
%struct.anon.2 = type { ptr, ptr, ptr }
%struct.anon.3 = type { i32, i8, ptr, i32, i32, ptr, ptr, ptr, %union.anon.4 }
%union.anon.4 = type { %struct.anon.5 }
%struct.anon.5 = type { ptr }
%struct._packet_info = type { ptr, ptr, i32, i32, %struct.nstime_t, %struct.nstime_t, %struct.nstime_t, i8, ptr, ptr, ptr, ptr, %struct._address, %struct._address, %struct._address, %struct._address, %struct._address, %struct._address, i32, ptr, i8, [3 x i8], %struct.anon.7, i32, i32, i32, i32, ptr, i8, ptr, ptr, i16, i16, i32, i32, i16, i32, i32, ptr, ptr, ptr, i8, i8, i16, i16, i16, i32, i16, i16, ptr, ptr, ptr, ptr, ptr, i32, i32 }
%struct.nstime_t = type { i64, i32 }
%struct._address = type { i32, i32, ptr, ptr }
%struct.anon.7 = type { i8, [3 x i8] }

@proto_json = internal global i32 0, align 4
@hf_ngap_PDUSessionResourceSetupUnsuccessfulTransfer_PDU = internal global i32 0, align 4
@.str.702 = private unnamed_addr constant [44 x i8] c"PDUSessionResourceSetupUnsuccessfulTransfer\00", align 1
@ett_ngap_PDUSessionResourceSetupUnsuccessfulTransfer = internal global i32 0, align 4

; Function Attrs: null_pointer_is_valid sspstrong uwtable
define internal i32 @dissect_ngap_PDUSessionResourceSetupUnsuccessfulTransfer(ptr noundef %0, i32 noundef %1, ptr noundef %2, ptr noundef %3, i32 noundef %4) #0 {
  %6 = alloca ptr, align 8
  %7 = alloca i32, align 4
  %8 = alloca ptr, align 8
  %9 = alloca ptr, align 8
  %10 = alloca i32, align 4
  %11 = alloca ptr, align 8
  store ptr %0, ptr %6, align 8
  store i32 %1, ptr %7, align 4
  store ptr %2, ptr %8, align 8
  store ptr %3, ptr %9, align 8
  store i32 %4, ptr %10, align 4
  call void @llvm.lifetime.start.p0(i64 8, ptr %11) #11
  %12 = load ptr, ptr %8, align 8
  %13 = getelementptr inbounds nuw %struct._asn1_ctx_t, ptr %12, i32 0, i32 3
  %14 = load ptr, ptr %13, align 8
  %15 = getelementptr inbounds nuw %struct._packet_info, ptr %14, i32 0, i32 51
  %16 = load ptr, ptr %15, align 8
  %17 = load ptr, ptr %8, align 8
  %18 = getelementptr inbounds nuw %struct._asn1_ctx_t, ptr %17, i32 0, i32 3
  %19 = load ptr, ptr %18, align 8
  %20 = load i32, ptr @proto_json, align 4
  %21 = call ptr @p_get_proto_data(ptr noundef %16, ptr noundef %19, i32 noundef %20, i32 noundef 0)
  store ptr %21, ptr %11, align 8
  %22 = load ptr, ptr %11, align 8
  %23 = icmp ne ptr %22, null
  br i1 %23, label %24, label %30

24:                                               ; preds = %5
  %25 = load ptr, ptr %8, align 8
  %26 = getelementptr inbounds nuw %struct._asn1_ctx_t, ptr %25, i32 0, i32 3
  %27 = load ptr, ptr %26, align 8
  %28 = getelementptr inbounds nuw %struct._packet_info, ptr %27, i32 0, i32 1
  %29 = load ptr, ptr %28, align 8
  call void @col_append_sep_str(ptr noundef %29, i32 noundef 25, ptr noundef null, ptr noundef @.str.702)
  br label %30

30:                                               ; preds = %24, %5
  %31 = load ptr, ptr %6, align 8
  %32 = load i32, ptr %7, align 4
  %33 = load ptr, ptr %8, align 8
  %34 = load ptr, ptr %9, align 8
  %35 = load i32, ptr %10, align 4
  %36 = load i32, ptr @ett_ngap_PDUSessionResourceSetupUnsuccessfulTransfer, align 4
  %37 = call i32 @dissect_per_sequence(ptr noundef %31, i32 noundef %32, ptr noundef %33, ptr noundef %34, i32 noundef %35, i32 noundef %36, ptr noundef @PDUSessionResourceSetupUnsuccessfulTransfer_sequence)
  store i32 %37, ptr %7, align 4
  %38 = load i32, ptr %7, align 4
  call void @llvm.lifetime.end.p0(i64 8, ptr %11) #11
  ret i32 %38
}

; Function Attrs: null_pointer_is_valid sspstrong uwtable
define internal i32 @dissect_PDUSessionResourceSetupUnsuccessfulTransfer_PDU(ptr noundef %0, ptr noundef %1, ptr noundef %2, ptr noundef %3) #0 {
  %5 = alloca ptr, align 8
  %6 = alloca ptr, align 8
  %7 = alloca ptr, align 8
  %8 = alloca ptr, align 8
  %9 = alloca i32, align 4
  %10 = alloca %struct._asn1_ctx_t, align 8
  store ptr %0, ptr %5, align 8
  store ptr %1, ptr %6, align 8
  store ptr %2, ptr %7, align 8
  store ptr %3, ptr %8, align 8
  call void @llvm.lifetime.start.p0(i64 4, ptr %9) #11
  store i32 0, ptr %9, align 4
  call void @llvm.lifetime.start.p0(i64 208, ptr %10) #11
  %11 = load ptr, ptr %6, align 8
  call void @asn1_ctx_init(ptr noundef %10, i32 noundef 1, i1 noundef zeroext true, ptr noundef %11)
  %12 = load ptr, ptr %5, align 8
  %13 = load i32, ptr %9, align 4
  %14 = load ptr, ptr %7, align 8
  %15 = load i32, ptr @hf_ngap_PDUSessionResourceSetupUnsuccessfulTransfer_PDU, align 4
  %16 = call i32 @dissect_ngap_PDUSessionResourceSetupUnsuccessfulTransfer(ptr noundef %12, i32 noundef %13, ptr noundef %10, ptr noundef %14, i32 noundef %15)
  store i32 %16, ptr %9, align 4
  %17 = load i32, ptr %9, align 4
  %18 = add i32 %17, 7
  store i32 %18, ptr %9, align 4
  %19 = load i32, ptr %9, align 4
  %20 = ashr i32 %19, 3
  store i32 %20, ptr %9, align 4
  %21 = load i32, ptr %9, align 4
  call void @llvm.lifetime.end.p0(i64 208, ptr %10) #11
  call void @llvm.lifetime.end.p0(i64 4, ptr %9) #11
  ret i32 %21
}